target datalayout = "e-m:e-p270:32:32-p271:32:32-p272:64:64-i64:64-i128:128-f80:128-n8:16:32:64-S128"
target triple = "x86_64-pc-linux-gnu"

%"class.QtPrivate::RefCount" = type { %class.QBasicAtomicInteger }
%class.QBasicAtomicInteger = type { %"struct.std::atomic" }
%"struct.std::atomic" = type { %"struct.std::__atomic_base" }
%"struct.std::__atomic_base" = type { i32 }
%"struct.QListData::Data" = type { %"class.QtPrivate::RefCount", i32, i32, i32, [1 x ptr] }
%class.IOPluginContainer = type { %"class.std::vector", %class.QMap, %class.QMap, %class.QMap, %class.QMap, %class.QMap, %class.QMap }
%"class.std::vector" = type { %"struct.std::_Vector_base" }
%"struct.std::_Vector_base" = type { %"struct.std::_Vector_base<IOPlugin *, std::allocator<IOPlugin *>>::_Vector_impl" }
%"struct.std::_Vector_base<IOPlugin *, std::allocator<IOPlugin *>>::_Vector_impl" = type { %"struct.std::_Vector_base<IOPlugin *, std::allocator<IOPlugin *>>::_Vector_impl_data" }
%"struct.std::_Vector_base<IOPlugin *, std::allocator<IOPlugin *>>::_Vector_impl_data" = type { ptr, ptr, ptr }
%class.QMap = type { ptr }
%class.QString = type { ptr }
%struct.QArrayData = type { %"class.QtPrivate::RefCount", i32, i32, i64 }
%class.QStringList = type { %class.QList }
%class.QList = type { %union.anon }
%union.anon = type { %struct.QListData }
%struct.QListData = type { ptr }
%"struct.QList<QString>::Node" = type { ptr }

@_ZN9QListData11shared_nullE = external global %"struct.QListData::Data", align 8

; Function Attrs: mustprogress nounwind uwtable
define linkonce_odr void @_ZN15QTypedArrayDataItE10deallocateEP10QArrayData(ptr noundef %0) #4 comdat align 2 {
  %2 = alloca ptr, align 8
  store ptr %0, ptr %2, align 8
  %3 = load ptr, ptr %2, align 8
  call void @_ZN10QArrayData10deallocateEPS_mm(ptr noundef %3, i64 noundef 2, i64 noundef 8) #3
  ret void
}

; Function Attrs: mustprogress nounwind uwtable
define linkonce_odr noundef i32 @_ZNSt13__atomic_baseIiEmmEv(ptr noundef nonnull align 4 dereferenceable(4) %0) #4 comdat align 2 {
  %2 = alloca ptr, align 8
  %3 = alloca i32, align 4
  %4 = alloca i32, align 4
  store ptr %0, ptr %2, align 8
  %5 = load ptr, ptr %2, align 8
  %6 = getelementptr inbounds %"struct.std::__atomic_base", ptr %5, i32 0, i32 0
  store i32 1, ptr %3, align 4
  %7 = load i32, ptr %3, align 4
  %8 = atomicrmw sub ptr %6, i32 %7 seq_cst, align 4
  %9 = sub i32 %8, %7
  store i32 %9, ptr %4, align 4
  %10 = load i32, ptr %4, align 4
  ret i32 %10
}

; Function Attrs: mustprogress nounwind uwtable
define linkonce_odr noundef i32 @_ZStanSt12memory_orderSt23__memory_order_modifier(i32 noundef %0, i32 noundef %1) #4 comdat {
  %3 = alloca i32, align 4
  %4 = alloca i32, align 4
  store i32 %0, ptr %3, align 4
  store i32 %1, ptr %4, align 4
  %5 = load i32, ptr %3, align 4
  %6 = load i32, ptr %4, align 4
  %7 = and i32 %5, %6
  ret i32 %7
}

; Function Attrs: mustprogress nounwind uwtable
define linkonce_odr void @_ZN7QStringD2Ev(ptr noundef nonnull align 8 dereferenceable(8) %0) unnamed_addr #4 comdat align 2 personality ptr @__gxx_personality_v0 {
  %2 = alloca ptr, align 8
  store ptr %0, ptr %2, align 8
  %3 = load ptr, ptr %2, align 8
  %4 = getelementptr inbounds %class.QString, ptr %3, i32 0, i32 0
  %5 = load ptr, ptr %4, align 8
  %6 = getelementptr inbounds %struct.QArrayData, ptr %5, i32 0, i32 0
  %7 = call noundef zeroext i1 @_ZN9QtPrivate8RefCount5derefEv(ptr noundef nonnull align 4 dereferenceable(4) %6) #3
  br i1 %7, label %12, label %8

8:                                                ; preds = %1
  %9 = getelementptr inbounds %class.QString, ptr %3, i32 0, i32 0
  %10 = load ptr, ptr %9, align 8
  invoke void @_ZN15QTypedArrayDataItE10deallocateEP10QArrayData(ptr noundef %10)
          to label %11 unwind label %13

11:                                               ; preds = %8
  br label %12

12:                                               ; preds = %11, %1
  ret void

13:                                               ; preds = %8
  %14 = landingpad { ptr, i32 }
          catch ptr null
  %15 = extractvalue { ptr, i32 } %14, 0
  call void @__clang_call_terminate(ptr %15) #11
  unreachable
}

; Function Attrs: mustprogress nounwind uwtable
define linkonce_odr noundef zeroext i1 @_ZN10QAtomicOpsIiE5derefIiEEbRSt6atomicIT_E(ptr noundef nonnull align 4 dereferenceable(4) %0) #4 comdat align 2 {
  %2 = alloca ptr, align 8
  store ptr %0, ptr %2, align 8
  %3 = load ptr, ptr %2, align 8
  %4 = call noundef i32 @_ZNSt13__atomic_baseIiEmmEv(ptr noundef nonnull align 4 dereferenceable(4) %3) #3
  %5 = icmp ne i32 %4, 0
  ret i1 %5
}

; Function Attrs: mustprogress nounwind uwtable
define linkonce_odr noundef i32 @_ZN10QAtomicOpsIiE11loadRelaxedIiEET_RKSt6atomicIS2_E(ptr noundef nonnull align 4 dereferenceable(4) %0) #4 comdat align 2 personality ptr @__gxx_personality_v0 {
  %2 = alloca ptr, align 8
  %3 = alloca i32, align 4
  %4 = alloca i32, align 4
  %5 = alloca i32, align 4
  %6 = alloca ptr, align 8
  store ptr %0, ptr %6, align 8
  %7 = load ptr, ptr %6, align 8
  store ptr %7, ptr %2, align 8
  store i32 0, ptr %3, align 4
  %8 = load ptr, ptr %2, align 8
  %9 = load i32, ptr %3, align 4
  %10 = invoke noundef i32 @_ZStanSt12memory_orderSt23__memory_order_modifier(i32 noundef %9, i32 noundef 65535)
          to label %11 unwind label %19

11:                                               ; preds = %1
  store i32 %10, ptr %4, align 4
  %12 = load i32, ptr %3, align 4
  switch i32 %12, label %13 [
    i32 1, label %15
    i32 2, label %15
    i32 5, label %17
  ]

13:                                               ; preds = %11
  %14 = load atomic i32, ptr %8 monotonic, align 4
  store i32 %14, ptr %5, align 4
  br label %22

15:                                               ; preds = %11, %11
  %16 = load atomic i32, ptr %8 acquire, align 4
  store i32 %16, ptr %5, align 4
  br label %22

17:                                               ; preds = %11
  %18 = load atomic i32, ptr %8 seq_cst, align 4
  store i32 %18, ptr %5, align 4
  br label %22

19:                                               ; preds = %1
  %20 = landingpad { ptr, i32 }
          catch ptr null
  %21 = extractvalue { ptr, i32 } %20, 0
  call void @__clang_call_terminate(ptr %21) #11
  unreachable

22:                                               ; preds = %17, %15, %13
  %23 = load i32, ptr %5, align 4
  ret i32 %23
}

; Function Attrs: mustprogress nounwind uwtable
define linkonce_odr void @_ZN5QListI7QStringE13node_destructEPNS1_4NodeES3_(ptr noundef nonnull align 8 dereferenceable(8) %0, ptr noundef %1, ptr noundef %2) #4 comdat align 2 {
  %4 = alloca ptr, align 8
  %5 = alloca ptr, align 8
  %6 = alloca ptr, align 8
  store ptr %0, ptr %4, align 8
  store ptr %1, ptr %5, align 8
  store ptr %2, ptr %6, align 8
  br label %7

7:                                                ; preds = %11, %3
  %8 = load ptr, ptr %5, align 8
  %9 = load ptr, ptr %6, align 8
  %10 = icmp ne ptr %8, %9
  br i1 %10, label %11, label %15

11:                                               ; preds = %7
  %12 = load ptr, ptr %6, align 8
  %13 = getelementptr inbounds %"struct.QList<QString>::Node", ptr %12, i32 -1
  store ptr %13, ptr %6, align 8
  %14 = load ptr, ptr %6, align 8
  call void @_ZN7QStringD2Ev(ptr noundef nonnull align 8 dereferenceable(8) %14) #3
  br label %7, !llvm.loop !9

15:                                               ; preds = %7
  ret void
}

; Function Attrs: mustprogress nounwind uwtable
define linkonce_odr noundef zeroext i1 @_ZN19QBasicAtomicIntegerIiE5derefEv(ptr noundef nonnull align 4 dereferenceable(4) %0) #4 comdat align 2 {
  %2 = alloca ptr, align 8
  store ptr %0, ptr %2, align 8
  %3 = load ptr, ptr %2, align 8
  %4 = getelementptr inbounds %class.QBasicAtomicInteger, ptr %3, i32 0, i32 0
  %5 = call noundef zeroext i1 @_ZN10QAtomicOpsIiE5derefIiEEbRSt6atomicIT_E(ptr noundef nonnull align 4 dereferenceable(4) %4) #3
  ret i1 %5
}

; Function Attrs: mustprogress nounwind uwtable
define linkonce_odr noundef i32 @_ZNK19QBasicAtomicIntegerIiE11loadRelaxedEv(ptr noundef nonnull align 4 dereferenceable(4) %0) #4 comdat align 2 {
  %2 = alloca ptr, align 8
  store ptr %0, ptr %2, align 8
  %3 = load ptr, ptr %2, align 8
  %4 = getelementptr inbounds %class.QBasicAtomicInteger, ptr %3, i32 0, i32 0
  %5 = call noundef i32 @_ZN10QAtomicOpsIiE11loadRelaxedIiEET_RKSt6atomicIS2_E(ptr noundef nonnull align 4 dereferenceable(4) %4) #3
  ret i32 %5
}

; Function Attrs: mustprogress uwtable
define linkonce_odr void @_ZN5QListI7QStringE7deallocEPN9QListData4DataE(ptr noundef nonnull align 8 dereferenceable(8) %0, ptr noundef %1) #5 comdat align 2 {
  %3 = alloca ptr, align 8
  %4 = alloca ptr, align 8
  store ptr %0, ptr %3, align 8
  store ptr %1, ptr %4, align 8
  %5 = load ptr, ptr %3, align 8
  %6 = load ptr, ptr %4, align 8
  %7 = getelementptr inbounds %"struct.QListData::Data", ptr %6, i32 0, i32 4
  %8 = getelementptr inbounds [1 x ptr], ptr %7, i64 0, i64 0
  %9 = load ptr, ptr %4, align 8
  %10 = getelementptr inbounds %"struct.QListData::Data", ptr %9, i32 0, i32 2
  %11 = load i32, ptr %10, align 8
  %12 = sext i32 %11 to i64
  %13 = getelementptr inbounds ptr, ptr %8, i64 %12
  %14 = load ptr, ptr %4, align 8
  %15 = getelementptr inbounds %"struct.QListData::Data", ptr %14, i32 0, i32 4
  %16 = getelementptr inbounds [1 x ptr], ptr %15, i64 0, i64 0
  %17 = load ptr, ptr %4, align 8
  %18 = getelementptr inbounds %"struct.QListData::Data", ptr %17, i32 0, i32 3
  %19 = load i32, ptr %18, align 4
  %20 = sext i32 %19 to i64
  %21 = getelementptr inbounds ptr, ptr %16, i64 %20
  call void @_ZN5QListI7QStringE13node_destructEPNS1_4NodeES3_(ptr noundef nonnull align 8 dereferenceable(8) %5, ptr noundef %13, ptr noundef %21)
  %22 = load ptr, ptr %4, align 8
  call void @_ZN9QListData7disposeEPNS_4DataE(ptr noundef %22)
  ret void
}

; Function Attrs: mustprogress nounwind uwtable
define linkonce_odr noundef zeroext i1 @_ZN9QtPrivate8RefCount5derefEv(ptr noundef nonnull align 4 dereferenceable(4) %0) #4 comdat align 2 {
  %2 = alloca i1, align 1
  %3 = alloca ptr, align 8
  %4 = alloca i32, align 4
  store ptr %0, ptr %3, align 8
  %5 = load ptr, ptr %3, align 8
  %6 = getelementptr inbounds %"class.QtPrivate::RefCount", ptr %5, i32 0, i32 0
  %7 = call noundef i32 @_ZNK19QBasicAtomicIntegerIiE11loadRelaxedEv(ptr noundef nonnull align 4 dereferenceable(4) %6) #3
  store i32 %7, ptr %4, align 4
  %8 = load i32, ptr %4, align 4
  %9 = icmp eq i32 %8, 0
  br i1 %9, label %10, label %11

10:                                               ; preds = %1
  store i1 false, ptr %2, align 1
  br label %18

11:                                               ; preds = %1
  %12 = load i32, ptr %4, align 4
  %13 = icmp eq i32 %12, -1
  br i1 %13, label %14, label %15

14:                                               ; preds = %11
  store i1 true, ptr %2, align 1
  br label %18

15:                                               ; preds = %11
  %16 = getelementptr inbounds %"class.QtPrivate::RefCount", ptr %5, i32 0, i32 0
  %17 = call noundef zeroext i1 @_ZN19QBasicAtomicIntegerIiE5derefEv(ptr noundef nonnull align 4 dereferenceable(4) %16) #3
  store i1 %17, ptr %2, align 1
  br label %18

18:                                               ; preds = %15, %14, %10
  %19 = load i1, ptr %2, align 1
  ret i1 %19
}

; Function Attrs: mustprogress nounwind uwtable
define linkonce_odr void @_ZN5QListI7QStringEC2EOS1_(ptr noundef nonnull align 8 dereferenceable(8) %0, ptr noundef nonnull align 8 dereferenceable(8) %1) unnamed_addr #4 comdat align 2 {
  %3 = alloca ptr, align 8
  %4 = alloca ptr, align 8
  store ptr %0, ptr %3, align 8
  store ptr %1, ptr %4, align 8
  %5 = load ptr, ptr %3, align 8
  %6 = getelementptr inbounds %class.QList, ptr %5, i32 0, i32 0
  %7 = load ptr, ptr %4, align 8
  %8 = getelementptr inbounds %class.QList, ptr %7, i32 0, i32 0
  %9 = load ptr, ptr %8, align 8
  store ptr %9, ptr %6, align 8
  %10 = load ptr, ptr %4, align 8
  %11 = getelementptr inbounds %class.QList, ptr %10, i32 0, i32 0
  store ptr @_ZN9QListData11shared_nullE, ptr %11, align 8
  ret void
}

; Function Attrs: mustprogress nounwind uwtable
define linkonce_odr void @_ZN5QListI7QStringED2Ev(ptr noundef nonnull align 8 dereferenceable(8) %0) unnamed_addr #4 comdat align 2 personality ptr @__gxx_personality_v0 {
  %2 = alloca ptr, align 8
  store ptr %0, ptr %2, align 8
  %3 = load ptr, ptr %2, align 8
  %4 = getelementptr inbounds %class.QList, ptr %3, i32 0, i32 0
  %5 = load ptr, ptr %4, align 8
  %6 = getelementptr inbounds %"struct.QListData::Data", ptr %5, i32 0, i32 0
  %7 = call noundef zeroext i1 @_ZN9QtPrivate8RefCount5derefEv(ptr noundef nonnull align 4 dereferenceable(4) %6) #3
  br i1 %7, label %12, label %8

8:                                                ; preds = %1
  %9 = getelementptr inbounds %class.QList, ptr %3, i32 0, i32 0
  %10 = load ptr, ptr %9, align 8
  invoke void @_ZN5QListI7QStringE7deallocEPN9QListData4DataE(ptr noundef nonnull align 8 dereferenceable(8) %3, ptr noundef %10)
          to label %11 unwind label %13

11:                                               ; preds = %8
  br label %12

12:                                               ; preds = %11, %1
  ret void

13:                                               ; preds = %8
  %14 = landingpad { ptr, i32 }
          catch ptr null
  %15 = extractvalue { ptr, i32 } %14, 0
  call void @__clang_call_terminate(ptr %15) #11
  unreachable
}

; Function Attrs: mustprogress nounwind uwtable
define linkonce_odr void @_ZN11QStringListC2EO5QListI7QStringE(ptr noundef nonnull align 8 dereferenceable(8) %0, ptr noundef nonnull align 8 dereferenceable(8) %1) unnamed_addr #4 comdat align 2 {
  %3 = alloca ptr, align 8
  %4 = alloca ptr, align 8
  store ptr %0, ptr %3, align 8
  store ptr %1, ptr %4, align 8
  %5 = load ptr, ptr %3, align 8
  %6 = load ptr, ptr %4, align 8
  call void @_ZN5QListI7QStringEC2EOS1_(ptr noundef nonnull align 8 dereferenceable(8) %5, ptr noundef nonnull align 8 dereferenceable(8) %6) #3
  ret void
}

; Function Attrs: mustprogress uwtable
define void @_ZNK17IOPluginContainer20inputImageFormatListEv(ptr dead_on_unwind noalias writable sret(%class.QStringList) align 8 %0, ptr noundef nonnull align 8 dereferenceable(72) %1) #5 align 2 {
  %3 = alloca ptr, align 8
  %4 = alloca ptr, align 8
  %5 = alloca %class.QList, align 8
  store ptr %0, ptr %3, align 8
  store ptr %1, ptr %4, align 8
  %6 = load ptr, ptr %4, align 8
  %7 = getelementptr inbounds %class.IOPluginContainer, ptr %6, i32 0, i32 3
  call void @_ZNK4QMapI7QStringP8IOPluginE4keysEv(ptr dead_on_unwind writable sret(%class.QList) align 8 %5, ptr noundef nonnull align 8 dereferenceable(8) %7)
  call void @_ZN11QStringListC2EO5QListI7QStringE(ptr noundef nonnull align 8 dereferenceable(8) %0, ptr noundef nonnull align 8 dereferenceable(8) %5) #3
  call void @_ZN5QListI7QStringED2Ev(ptr noundef nonnull align 8 dereferenceable(8) %5) #3
  ret void
}